; Function Attrs: nounwind uwtable
define internal range(i32 0, 2) i32 @IoCommandWriteBaf(ptr noundef readonly captures(none) %0, i32 noundef %1, ptr noundef %2) #0 {
  tail call void (...) @Extra_UtilGetoptReset() #18
  %4 = tail call i32 @Extra_UtilGetopt(i32 noundef %1, ptr noundef %2, ptr noundef nonnull @.str.165) #18
  %.not = icmp eq i32 %4, -1
  br i1 %.not, label %5, label %20

5:                                                ; preds = %3
  %6 = getelementptr inbounds nuw i8, ptr %0, i64 48
  %7 = load ptr, ptr %6, align 8, !tbaa !49
  %8 = icmp eq ptr %7, null
  br i1 %8, label %9, label %13

9:                                                ; preds = %5
  %10 = getelementptr inbounds nuw i8, ptr %0, i64 128
  %11 = load ptr, ptr %10, align 8, !tbaa !50
  %12 = tail call i64 @fwrite(ptr nonnull @.str.142, i64 15, i64 1, ptr %11)
  br label %30

13:                                               ; preds = %5
  %14 = load i32, ptr @globalUtilOptind, align 4, !tbaa !3
  %15 = add nsw i32 %14, 1
  %.not13 = icmp eq i32 %1, %15
  br i1 %.not13, label %16, label %20

16:                                               ; preds = %13
  %17 = sext i32 %14 to i64
  %18 = getelementptr inbounds ptr, ptr %2, i64 %17
  %19 = load ptr, ptr %18, align 8, !tbaa !9
  tail call void @Io_Write(ptr noundef nonnull %7, ptr noundef %19, i32 noundef 2) #18
  br label %30

20:                                               ; preds = %13, %3
  %21 = getelementptr inbounds nuw i8, ptr %0, i64 136
  %22 = load ptr, ptr %21, align 8, !tbaa !34
  %23 = tail call i64 @fwrite(ptr nonnull @.str.250, i64 29, i64 1, ptr %22)
  %24 = load ptr, ptr %21, align 8, !tbaa !34
  %25 = tail call i64 @fwrite(ptr nonnull @.str.251, i64 46, i64 1, ptr %24)
  %26 = load ptr, ptr %21, align 8, !tbaa !34
  %27 = tail call i64 @fwrite(ptr nonnull @.str.233, i64 33, i64 1, ptr %26)
  %28 = load ptr, ptr %21, align 8, !tbaa !34
  %29 = tail call i64 @fwrite(ptr nonnull @.str.252, i64 57, i64 1, ptr %28)
  br label %30

30:                                               ; preds = %20, %16, %9
  %.0 = phi i32 [ 1, %20 ], [ 0, %9 ], [ 0, %16 ]
  ret i32 %.0
}